target datalayout = "e-m:e-p270:32:32-p271:32:32-p272:64:64-i64:64-i128:128-f80:128-n8:16:32:64-S128"
target triple = "x86_64-unknown-linux-gnu"

@_ZZN8QuantLib4Date11monthOffsetENS_5MonthEbE11MonthOffset = internal constant [13 x i32] [i32 0, i32 31, i32 59, i32 90, i32 120, i32 151, i32 181, i32 212, i32 243, i32 273, i32 304, i32 334, i32 365], align 16
@_ZZN8QuantLib4Date11monthOffsetENS_5MonthEbE15MonthLeapOffset = internal constant [13 x i32] [i32 0, i32 31, i32 60, i32 91, i32 121, i32 152, i32 182, i32 213, i32 244, i32 274, i32 305, i32 335, i32 366], align 16

; Function Attrs: mustprogress nounwind uwtable
define noundef i32 @_ZN8QuantLib4Date11monthOffsetENS_5MonthEb(i32 noundef %m, i1 noundef zeroext %leapYear) #4 align 2 {
entry:
  %m.addr = alloca i32, align 4
  %leapYear.addr = alloca i8, align 1
  store i32 %m, ptr %m.addr, align 4, !tbaa !13
  %storedv = zext i1 %leapYear to i8
  store i8 %storedv, ptr %leapYear.addr, align 1, !tbaa !15
  %0 = load i8, ptr %leapYear.addr, align 1, !tbaa !15, !range !17, !noundef !18
  %loadedv = trunc i8 %0 to i1
  br i1 %loadedv, label %cond.true, label %cond.false

cond.true:                                        ; preds = %entry
  %1 = load i32, ptr %m.addr, align 4, !tbaa !13
  %sub = sub nsw i32 %1, 1
  %idxprom = sext i32 %sub to i64
  %arrayidx = getelementptr inbounds [13 x i32], ptr @_ZZN8QuantLib4Date11monthOffsetENS_5MonthEbE15MonthLeapOffset, i64 0, i64 %idxprom
  %2 = load i32, ptr %arrayidx, align 4, !tbaa !11
  br label %cond.end

cond.false:                                       ; preds = %entry
  %3 = load i32, ptr %m.addr, align 4, !tbaa !13
  %sub1 = sub nsw i32 %3, 1
  %idxprom2 = sext i32 %sub1 to i64
  %arrayidx3 = getelementptr inbounds [13 x i32], ptr @_ZZN8QuantLib4Date11monthOffsetENS_5MonthEbE11MonthOffset, i64 0, i64 %idxprom2
  %4 = load i32, ptr %arrayidx3, align 4, !tbaa !11
  br label %cond.end

cond.end:                                         ; preds = %cond.false, %cond.true
  %cond = phi i32 [ %2, %cond.true ], [ %4, %cond.false ]
  ret i32 %cond
}