; Function Attrs: mustprogress nofree norecurse nosync nounwind willreturn memory(none) uwtable
define noundef i32 @_ZN8QuantLib4Date11monthOffsetENS_5MonthEb(i32 noundef %m, i1 noundef zeroext %leapYear) local_unnamed_addr #9 align 2 {
entry:
  %sub = add nsw i32 %m, -1
  %idxprom = sext i32 %sub to i64
  %arrayidx = getelementptr inbounds [13 x i32], ptr @_ZZN8QuantLib4Date11monthOffsetENS_5MonthEbE15MonthLeapOffset, i64 0, i64 %idxprom
  %arrayidx3 = getelementptr inbounds [13 x i32], ptr @_ZZN8QuantLib4Date11monthOffsetENS_5MonthEbE11MonthOffset, i64 0, i64 %idxprom
  %cond.in = select i1 %leapYear, ptr %arrayidx, ptr %arrayidx3
  %cond = load i32, ptr %cond.in, align 4, !tbaa !14
  ret i32 %cond
}